target datalayout = "e-m:e-p270:32:32-p271:32:32-p272:64:64-i64:64-i128:128-f80:128-n8:16:32:64-S128"
target triple = "x86_64-unknown-linux-gnu"

%struct.BrotliEncoderDictionary = type { ptr, i32, i32, i64, ptr, ptr, ptr, ptr, %struct.BrotliTrie, i32, ptr, ptr, ptr, i64, ptr, i64, ptr, ptr }
%struct.BrotliTrie = type { ptr, i64, i64, %struct.BrotliTrieNode }
%struct.BrotliTrieNode = type { i8, i8, i8, i32, i32 }
%struct.ContextualEncoderDictionary = type { i32, i8, [64 x i8], [64 x ptr], i64, %struct.BrotliEncoderDictionary, ptr }
%struct.BrotliDictionary = type { [32 x i8], [32 x i32], i64, ptr }

; Function Attrs: nounwind uwtable
define hidden i32 @BrotliFindAllStaticDictionaryMatches(ptr noundef %dictionary, ptr noundef %data, i64 noundef %min_length, i64 noundef %max_length, ptr noundef %matches) #0 {
entry:
  %a.addr.i = alloca i32, align 4
  %b.addr.i = alloca i32, align 4
  %distance.addr.i = alloca i64, align 8
  %len.addr.i = alloca i64, align 8
  %len_code.addr.i = alloca i64, align 8
  %matches.addr.i = alloca ptr, align 8
  %match.i = alloca i32, align 4
  %dictionary.addr = alloca ptr, align 8
  %data.addr = alloca ptr, align 8
  %min_length.addr = alloca i64, align 8
  %max_length.addr = alloca i64, align 8
  %matches.addr = alloca ptr, align 8
  %has_found_match = alloca i32, align 4
  %matches2 = alloca [38 x i32], align 16
  %l = alloca i32, align 4
  %dictionary2 = alloca ptr, align 8
  %dist = alloca i32, align 4
  %len_code = alloca i32, align 4
  %skipdist = alloca i32, align 4
  store ptr %dictionary, ptr %dictionary.addr, align 8
  store ptr %data, ptr %data.addr, align 8
  store i64 %min_length, ptr %min_length.addr, align 8
  store i64 %max_length, ptr %max_length.addr, align 8
  store ptr %matches, ptr %matches.addr, align 8
  %0 = load ptr, ptr %dictionary.addr, align 8
  %1 = load ptr, ptr %data.addr, align 8
  %2 = load i64, ptr %min_length.addr, align 8
  %3 = load i64, ptr %max_length.addr, align 8
  %4 = load ptr, ptr %matches.addr, align 8
  %call = call i32 @BrotliFindAllStaticDictionaryMatchesFor(ptr noundef %0, ptr noundef %1, i64 noundef %2, i64 noundef %3, ptr noundef %4)
  store i32 %call, ptr %has_found_match, align 4
  %5 = load ptr, ptr %dictionary.addr, align 8
  %parent = getelementptr inbounds %struct.BrotliEncoderDictionary, ptr %5, i32 0, i32 10
  %6 = load ptr, ptr %parent, align 8
  %tobool = icmp ne ptr %6, null
  br i1 %tobool, label %land.lhs.true, label %if.end38

land.lhs.true:                                    ; preds = %entry
  %7 = load ptr, ptr %dictionary.addr, align 8
  %parent1 = getelementptr inbounds %struct.BrotliEncoderDictionary, ptr %7, i32 0, i32 10
  %8 = load ptr, ptr %parent1, align 8
  %num_dictionaries = getelementptr inbounds %struct.ContextualEncoderDictionary, ptr %8, i32 0, i32 1
  %9 = load i8, ptr %num_dictionaries, align 4
  %conv = zext i8 %9 to i32
  %cmp = icmp sgt i32 %conv, 1
  br i1 %cmp, label %if.then, label %if.end38

if.then:                                          ; preds = %land.lhs.true
  %10 = load ptr, ptr %dictionary.addr, align 8
  %parent3 = getelementptr inbounds %struct.BrotliEncoderDictionary, ptr %10, i32 0, i32 10
  %11 = load ptr, ptr %parent3, align 8
  %dict = getelementptr inbounds %struct.ContextualEncoderDictionary, ptr %11, i32 0, i32 3
  %arrayidx = getelementptr inbounds [64 x ptr], ptr %dict, i64 0, i64 0
  %12 = load ptr, ptr %arrayidx, align 8
  store ptr %12, ptr %dictionary2, align 8
  %13 = load ptr, ptr %dictionary2, align 8
  %14 = load ptr, ptr %dictionary.addr, align 8
  %cmp4 = icmp eq ptr %13, %14
  br i1 %cmp4, label %if.then6, label %if.end

if.then6:                                         ; preds = %if.then
  %15 = load ptr, ptr %dictionary.addr, align 8
  %parent7 = getelementptr inbounds %struct.BrotliEncoderDictionary, ptr %15, i32 0, i32 10
  %16 = load ptr, ptr %parent7, align 8
  %dict8 = getelementptr inbounds %struct.ContextualEncoderDictionary, ptr %16, i32 0, i32 3
  %arrayidx9 = getelementptr inbounds [64 x ptr], ptr %dict8, i64 0, i64 1
  %17 = load ptr, ptr %arrayidx9, align 8
  store ptr %17, ptr %dictionary2, align 8
  br label %if.end

if.end:                                           ; preds = %if.then6, %if.then
  store i32 0, ptr %l, align 4
  br label %for.cond

for.cond:                                         ; preds = %for.inc, %if.end
  %18 = load i32, ptr %l, align 4
  %cmp10 = icmp slt i32 %18, 38
  br i1 %cmp10, label %for.body, label %for.end

for.body:                                         ; preds = %for.cond
  %19 = load i32, ptr %l, align 4
  %idxprom = sext i32 %19 to i64
  %arrayidx12 = getelementptr inbounds [38 x i32], ptr %matches2, i64 0, i64 %idxprom
  store i32 268435455, ptr %arrayidx12, align 4
  br label %for.inc

for.inc:                                          ; preds = %for.body
  %20 = load i32, ptr %l, align 4
  %inc = add nsw i32 %20, 1
  store i32 %inc, ptr %l, align 4
  br label %for.cond, !llvm.loop !4

for.end:                                          ; preds = %for.cond
  %21 = load ptr, ptr %dictionary2, align 8
  %22 = load ptr, ptr %data.addr, align 8
  %23 = load i64, ptr %min_length.addr, align 8
  %24 = load i64, ptr %max_length.addr, align 8
  %arraydecay = getelementptr inbounds [38 x i32], ptr %matches2, i64 0, i64 0
  %call13 = call i32 @BrotliFindAllStaticDictionaryMatchesFor(ptr noundef %21, ptr noundef %22, i64 noundef %23, i64 noundef %24, ptr noundef %arraydecay)
  %25 = load i32, ptr %has_found_match, align 4
  %or = or i32 %25, %call13
  store i32 %or, ptr %has_found_match, align 4
  store i32 0, ptr %l, align 4
  br label %for.cond14

for.cond14:                                       ; preds = %for.inc35, %for.end
  %26 = load i32, ptr %l, align 4
  %cmp15 = icmp slt i32 %26, 38
  br i1 %cmp15, label %for.body17, label %for.end37

for.body17:                                       ; preds = %for.cond14
  %27 = load i32, ptr %l, align 4
  %idxprom18 = sext i32 %27 to i64
  %arrayidx19 = getelementptr inbounds [38 x i32], ptr %matches2, i64 0, i64 %idxprom18
  %28 = load i32, ptr %arrayidx19, align 4
  %cmp20 = icmp ne i32 %28, 268435455
  br i1 %cmp20, label %if.then22, label %if.end34

if.then22:                                        ; preds = %for.body17
  %29 = load i32, ptr %l, align 4
  %idxprom23 = sext i32 %29 to i64
  %arrayidx24 = getelementptr inbounds [38 x i32], ptr %matches2, i64 0, i64 %idxprom23
  %30 = load i32, ptr %arrayidx24, align 4
  %shr = lshr i32 %30, 5
  store i32 %shr, ptr %dist, align 4
  %31 = load i32, ptr %l, align 4
  %idxprom25 = sext i32 %31 to i64
  %arrayidx26 = getelementptr inbounds [38 x i32], ptr %matches2, i64 0, i64 %idxprom25
  %32 = load i32, ptr %arrayidx26, align 4
  %and = and i32 %32, 31
  store i32 %and, ptr %len_code, align 4
  %33 = load ptr, ptr %dictionary.addr, align 8
  %words = getelementptr inbounds %struct.BrotliEncoderDictionary, ptr %33, i32 0, i32 0
  %34 = load ptr, ptr %words, align 8
  %size_bits_by_length = getelementptr inbounds %struct.BrotliDictionary, ptr %34, i32 0, i32 0
  %35 = load i32, ptr %len_code, align 4
  %idxprom27 = zext i32 %35 to i64
  %arrayidx28 = getelementptr inbounds [32 x i8], ptr %size_bits_by_length, i64 0, i64 %idxprom27
  %36 = load i8, ptr %arrayidx28, align 1
  %conv29 = zext i8 %36 to i32
  %shl = shl i32 1, %conv29
  %and30 = and i32 %shl, -2
  %37 = load ptr, ptr %dictionary.addr, align 8
  %num_transforms = getelementptr inbounds %struct.BrotliEncoderDictionary, ptr %37, i32 0, i32 1
  %38 = load i32, ptr %num_transforms, align 8
  %mul = mul i32 %and30, %38
  store i32 %mul, ptr %skipdist, align 4
  %39 = load i32, ptr %skipdist, align 4
  %40 = load i32, ptr %dist, align 4
  %add = add i32 %40, %39
  store i32 %add, ptr %dist, align 4
  %41 = load i32, ptr %dist, align 4
  %conv31 = zext i32 %41 to i64
  %42 = load i32, ptr %l, align 4
  %conv32 = sext i32 %42 to i64
  %43 = load i32, ptr %len_code, align 4
  %conv33 = zext i32 %43 to i64
  %44 = load ptr, ptr %matches.addr, align 8
  store i64 %conv31, ptr %distance.addr.i, align 8
  store i64 %conv32, ptr %len.addr.i, align 8
  store i64 %conv33, ptr %len_code.addr.i, align 8
  store ptr %44, ptr %matches.addr.i, align 8
  %45 = load i64, ptr %distance.addr.i, align 8
  %shl.i = shl i64 %45, 5
  %46 = load i64, ptr %len_code.addr.i, align 8
  %add.i = add i64 %shl.i, %46
  %conv.i = trunc i64 %add.i to i32
  store i32 %conv.i, ptr %match.i, align 4
  %47 = load ptr, ptr %matches.addr.i, align 8
  %48 = load i64, ptr %len.addr.i, align 8
  %arrayidx.i = getelementptr inbounds i32, ptr %47, i64 %48
  %49 = load i32, ptr %arrayidx.i, align 4
  %50 = load i32, ptr %match.i, align 4
  store i32 %49, ptr %a.addr.i, align 4
  store i32 %50, ptr %b.addr.i, align 4
  %51 = load i32, ptr %a.addr.i, align 4
  %52 = load i32, ptr %b.addr.i, align 4
  %cmp.i = icmp ult i32 %51, %52
  br i1 %cmp.i, label %cond.true.i, label %cond.false.i

cond.true.i:                                      ; preds = %if.then22
  %53 = load i32, ptr %a.addr.i, align 4
  br label %brotli_min_uint32_t.exit

cond.false.i:                                     ; preds = %if.then22
  %54 = load i32, ptr %b.addr.i, align 4
  br label %brotli_min_uint32_t.exit

brotli_min_uint32_t.exit:                         ; preds = %cond.false.i, %cond.true.i
  %cond.i = phi i32 [ %53, %cond.true.i ], [ %54, %cond.false.i ]
  %55 = load ptr, ptr %matches.addr.i, align 8
  %56 = load i64, ptr %len.addr.i, align 8
  %arrayidx1.i = getelementptr inbounds i32, ptr %55, i64 %56
  store i32 %cond.i, ptr %arrayidx1.i, align 4
  br label %if.end34

if.end34:                                         ; preds = %brotli_min_uint32_t.exit, %for.body17
  br label %for.inc35

for.inc35:                                        ; preds = %if.end34
  %57 = load i32, ptr %l, align 4
  %inc36 = add nsw i32 %57, 1
  store i32 %inc36, ptr %l, align 4
  br label %for.cond14, !llvm.loop !6

for.end37:                                        ; preds = %for.cond14
  br label %if.end38

if.end38:                                         ; preds = %for.end37, %land.lhs.true, %entry
  %58 = load i32, ptr %has_found_match, align 4
  ret i32 %58
}