; Function Attrs: nofree norecurse nosync nounwind memory(readwrite, inaccessiblemem: none) uwtable
define hidden i32 @BrotliFindAllStaticDictionaryMatches(ptr noundef readonly %dictionary, ptr noundef %data, i64 noundef %min_length, i64 noundef %max_length, ptr noundef %matches) local_unnamed_addr #0 {
entry:
  %matches2 = alloca [38 x i32], align 16
  %call = tail call fastcc i32 @BrotliFindAllStaticDictionaryMatchesFor(ptr noundef %dictionary, ptr noundef %data, i64 noundef %min_length, i64 noundef %max_length, ptr noundef %matches)
  %parent = getelementptr inbounds nuw i8, ptr %dictionary, i64 104
  %0 = load ptr, ptr %parent, align 8
  %tobool.not = icmp eq ptr %0, null
  br i1 %tobool.not, label %if.end38, label %land.lhs.true

land.lhs.true:                                    ; preds = %entry
  %num_dictionaries = getelementptr inbounds nuw i8, ptr %0, i64 4
  %1 = load i8, ptr %num_dictionaries, align 4
  %cmp = icmp ugt i8 %1, 1
  br i1 %cmp, label %if.then, label %if.end38

if.then:                                          ; preds = %land.lhs.true
  %dict = getelementptr inbounds nuw i8, ptr %0, i64 72
  %2 = load ptr, ptr %dict, align 8
  %cmp4 = icmp eq ptr %2, %dictionary
  br i1 %cmp4, label %if.then6, label %if.end

if.then6:                                         ; preds = %if.then
  %arrayidx9 = getelementptr inbounds nuw i8, ptr %0, i64 80
  %3 = load ptr, ptr %arrayidx9, align 8
  br label %if.end

if.end:                                           ; preds = %if.then6, %if.then
  %dictionary2.0 = phi ptr [ %3, %if.then6 ], [ %2, %if.then ]
  br label %for.body

for.body:                                         ; preds = %if.end, %for.body
  %indvars.iv = phi i64 [ 0, %if.end ], [ %indvars.iv.next, %for.body ]
  %arrayidx12 = getelementptr inbounds nuw [38 x i32], ptr %matches2, i64 0, i64 %indvars.iv
  store i32 268435455, ptr %arrayidx12, align 4
  %indvars.iv.next = add nuw nsw i64 %indvars.iv, 1
  %exitcond.not = icmp eq i64 %indvars.iv.next, 38
  br i1 %exitcond.not, label %for.end, label %for.body, !llvm.loop !4

for.end:                                          ; preds = %for.body
  %call13 = call fastcc i32 @BrotliFindAllStaticDictionaryMatchesFor(ptr noundef %dictionary2.0, ptr noundef %data, i64 noundef %min_length, i64 noundef %max_length, ptr noundef nonnull %matches2)
  %num_transforms = getelementptr inbounds nuw i8, ptr %dictionary, i64 8
  br label %for.body17

for.body17:                                       ; preds = %for.end, %for.inc35
  %indvars.iv35 = phi i64 [ 0, %for.end ], [ %indvars.iv.next36, %for.inc35 ]
  %arrayidx19 = getelementptr inbounds nuw [38 x i32], ptr %matches2, i64 0, i64 %indvars.iv35
  %4 = load i32, ptr %arrayidx19, align 4
  %cmp20.not = icmp eq i32 %4, 268435455
  br i1 %cmp20.not, label %for.inc35, label %if.then22

if.then22:                                        ; preds = %for.body17
  %and = and i32 %4, 31
  %5 = load ptr, ptr %dictionary, align 8
  %idxprom27 = zext nneg i32 %and to i64
  %arrayidx28 = getelementptr inbounds nuw [32 x i8], ptr %5, i64 0, i64 %idxprom27
  %6 = load i8, ptr %arrayidx28, align 1
  %conv29 = zext nneg i8 %6 to i32
  %shl = shl nuw i32 1, %conv29
  %and30 = and i32 %shl, 134217726
  %7 = load i32, ptr %num_transforms, align 8
  %mul = shl i32 %7, 5
  %add30 = mul i32 %mul, %and30
  %shr31 = add i32 %add30, %4
  %arrayidx.i = getelementptr inbounds nuw i32, ptr %matches, i64 %indvars.iv35
  %8 = load i32, ptr %arrayidx.i, align 4
  %cond.i = call i32 @llvm.umin.i32(i32 %8, i32 %shr31)
  store i32 %cond.i, ptr %arrayidx.i, align 4
  br label %for.inc35

for.inc35:                                        ; preds = %for.body17, %if.then22
  %indvars.iv.next36 = add nuw nsw i64 %indvars.iv35, 1
  %exitcond38.not = icmp eq i64 %indvars.iv.next36, 38
  br i1 %exitcond38.not, label %if.end38.loopexit, label %for.body17, !llvm.loop !6

if.end38.loopexit:                                ; preds = %for.inc35
  %or = or i32 %call13, %call
  br label %if.end38

if.end38:                                         ; preds = %if.end38.loopexit, %land.lhs.true, %entry
  %has_found_match.0 = phi i32 [ %call, %land.lhs.true ], [ %call, %entry ], [ %or, %if.end38.loopexit ]
  ret i32 %has_found_match.0
}